target datalayout = "e-m:e-p270:32:32-p271:32:32-p272:64:64-i64:64-i128:128-f80:128-n8:16:32:64-S128"
target triple = "x86_64-pc-linux-gnu"

%struct.Chain = type { i32, i32, i32, [2 x i32], ptr }

; Function Attrs: mustprogress uwtable
define hidden noundef i32 @_ZN2cv8ximgproc15EdgeDrawingImpl12LongestChainEP5Chaini(ptr noundef %0, i32 noundef %1) #4 align 2 {
  %3 = alloca i32, align 4
  %4 = alloca ptr, align 8
  %5 = alloca i32, align 4
  %6 = alloca i32, align 4
  %7 = alloca i32, align 4
  %8 = alloca i32, align 4
  store ptr %0, ptr %4, align 8, !tbaa !253
  store i32 %1, ptr %5, align 4, !tbaa !8
  %9 = load i32, ptr %5, align 4, !tbaa !8
  %10 = icmp eq i32 %9, -1
  br i1 %10, label %19, label %11

11:                                               ; preds = %2
  %12 = load ptr, ptr %4, align 8, !tbaa !253
  %13 = load i32, ptr %5, align 4, !tbaa !8
  %14 = sext i32 %13 to i64
  %15 = getelementptr inbounds %struct.Chain, ptr %12, i64 %14
  %16 = getelementptr inbounds nuw %struct.Chain, ptr %15, i32 0, i32 1
  %17 = load i32, ptr %16, align 4, !tbaa !255
  %18 = icmp eq i32 %17, 0
  br i1 %18, label %19, label %20

19:                                               ; preds = %11, %2
  store i32 0, ptr %3, align 4
  br label %87

20:                                               ; preds = %11
  call void @llvm.lifetime.start.p0(i64 4, ptr %6) #3
  store i32 0, ptr %6, align 4, !tbaa !8
  %21 = load ptr, ptr %4, align 8, !tbaa !253
  %22 = load i32, ptr %5, align 4, !tbaa !8
  %23 = sext i32 %22 to i64
  %24 = getelementptr inbounds %struct.Chain, ptr %21, i64 %23
  %25 = getelementptr inbounds nuw %struct.Chain, ptr %24, i32 0, i32 3
  %26 = getelementptr inbounds [2 x i32], ptr %25, i64 0, i64 0
  %27 = load i32, ptr %26, align 4, !tbaa !8
  %28 = icmp ne i32 %27, -1
  br i1 %28, label %29, label %39

29:                                               ; preds = %20
  %30 = load ptr, ptr %4, align 8, !tbaa !253
  %31 = load ptr, ptr %4, align 8, !tbaa !253
  %32 = load i32, ptr %5, align 4, !tbaa !8
  %33 = sext i32 %32 to i64
  %34 = getelementptr inbounds %struct.Chain, ptr %31, i64 %33
  %35 = getelementptr inbounds nuw %struct.Chain, ptr %34, i32 0, i32 3
  %36 = getelementptr inbounds [2 x i32], ptr %35, i64 0, i64 0
  %37 = load i32, ptr %36, align 4, !tbaa !8
  %38 = call noundef i32 @_ZN2cv8ximgproc15EdgeDrawingImpl12LongestChainEP5Chaini(ptr noundef %30, i32 noundef %37)
  store i32 %38, ptr %6, align 4, !tbaa !8
  br label %39

39:                                               ; preds = %29, %20
  call void @llvm.lifetime.start.p0(i64 4, ptr %7) #3
  store i32 0, ptr %7, align 4, !tbaa !8
  %40 = load ptr, ptr %4, align 8, !tbaa !253
  %41 = load i32, ptr %5, align 4, !tbaa !8
  %42 = sext i32 %41 to i64
  %43 = getelementptr inbounds %struct.Chain, ptr %40, i64 %42
  %44 = getelementptr inbounds nuw %struct.Chain, ptr %43, i32 0, i32 3
  %45 = getelementptr inbounds [2 x i32], ptr %44, i64 0, i64 1
  %46 = load i32, ptr %45, align 4, !tbaa !8
  %47 = icmp ne i32 %46, -1
  br i1 %47, label %48, label %58

48:                                               ; preds = %39
  %49 = load ptr, ptr %4, align 8, !tbaa !253
  %50 = load ptr, ptr %4, align 8, !tbaa !253
  %51 = load i32, ptr %5, align 4, !tbaa !8
  %52 = sext i32 %51 to i64
  %53 = getelementptr inbounds %struct.Chain, ptr %50, i64 %52
  %54 = getelementptr inbounds nuw %struct.Chain, ptr %53, i32 0, i32 3
  %55 = getelementptr inbounds [2 x i32], ptr %54, i64 0, i64 1
  %56 = load i32, ptr %55, align 4, !tbaa !8
  %57 = call noundef i32 @_ZN2cv8ximgproc15EdgeDrawingImpl12LongestChainEP5Chaini(ptr noundef %49, i32 noundef %56)
  store i32 %57, ptr %7, align 4, !tbaa !8
  br label %58

58:                                               ; preds = %48, %39
  call void @llvm.lifetime.start.p0(i64 4, ptr %8) #3
  store i32 0, ptr %8, align 4, !tbaa !8
  %59 = load i32, ptr %6, align 4, !tbaa !8
  %60 = load i32, ptr %7, align 4, !tbaa !8
  %61 = icmp sge i32 %59, %60
  br i1 %61, label %62, label %70

62:                                               ; preds = %58
  %63 = load i32, ptr %6, align 4, !tbaa !8
  store i32 %63, ptr %8, align 4, !tbaa !8
  %64 = load ptr, ptr %4, align 8, !tbaa !253
  %65 = load i32, ptr %5, align 4, !tbaa !8
  %66 = sext i32 %65 to i64
  %67 = getelementptr inbounds %struct.Chain, ptr %64, i64 %66
  %68 = getelementptr inbounds nuw %struct.Chain, ptr %67, i32 0, i32 3
  %69 = getelementptr inbounds [2 x i32], ptr %68, i64 0, i64 1
  store i32 -1, ptr %69, align 4, !tbaa !8
  br label %78

70:                                               ; preds = %58
  %71 = load i32, ptr %7, align 4, !tbaa !8
  store i32 %71, ptr %8, align 4, !tbaa !8
  %72 = load ptr, ptr %4, align 8, !tbaa !253
  %73 = load i32, ptr %5, align 4, !tbaa !8
  %74 = sext i32 %73 to i64
  %75 = getelementptr inbounds %struct.Chain, ptr %72, i64 %74
  %76 = getelementptr inbounds nuw %struct.Chain, ptr %75, i32 0, i32 3
  %77 = getelementptr inbounds [2 x i32], ptr %76, i64 0, i64 0
  store i32 -1, ptr %77, align 4, !tbaa !8
  br label %78

78:                                               ; preds = %70, %62
  %79 = load ptr, ptr %4, align 8, !tbaa !253
  %80 = load i32, ptr %5, align 4, !tbaa !8
  %81 = sext i32 %80 to i64
  %82 = getelementptr inbounds %struct.Chain, ptr %79, i64 %81
  %83 = getelementptr inbounds nuw %struct.Chain, ptr %82, i32 0, i32 1
  %84 = load i32, ptr %83, align 4, !tbaa !255
  %85 = load i32, ptr %8, align 4, !tbaa !8
  %86 = add nsw i32 %84, %85
  store i32 %86, ptr %3, align 4
  call void @llvm.lifetime.end.p0(i64 4, ptr %8) #3
  call void @llvm.lifetime.end.p0(i64 4, ptr %7) #3
  call void @llvm.lifetime.end.p0(i64 4, ptr %6) #3
  br label %87

87:                                               ; preds = %78, %19
  %88 = load i32, ptr %3, align 4
  ret i32 %88
}