; Function Attrs: mustprogress nofree nosync nounwind memory(argmem: readwrite) uwtable
define hidden noundef i32 @_ZN2cv8ximgproc15EdgeDrawingImpl12LongestChainEP5Chaini(ptr noundef %0, i32 noundef %1) local_unnamed_addr #22 align 2 {
  %3 = icmp eq i32 %1, -1
  br i1 %3, label %26, label %4

4:                                                ; preds = %2
  %5 = sext i32 %1 to i64
  %6 = getelementptr inbounds %struct.Chain, ptr %0, i64 %5
  %7 = getelementptr inbounds nuw i8, ptr %6, i64 4
  %8 = load i32, ptr %7, align 4, !tbaa !223
  %9 = icmp eq i32 %8, 0
  br i1 %9, label %26, label %10

10:                                               ; preds = %4
  %11 = getelementptr inbounds nuw i8, ptr %6, i64 12
  %12 = load i32, ptr %11, align 4, !tbaa !15
  %.not = icmp eq i32 %12, -1
  br i1 %.not, label %15, label %13

13:                                               ; preds = %10
  %14 = tail call noundef i32 @_ZN2cv8ximgproc15EdgeDrawingImpl12LongestChainEP5Chaini(ptr noundef nonnull %0, i32 noundef %12)
  br label %15

15:                                               ; preds = %13, %10
  %.025 = phi i32 [ %14, %13 ], [ 0, %10 ]
  %16 = getelementptr inbounds nuw i8, ptr %6, i64 16
  %17 = load i32, ptr %16, align 4, !tbaa !15
  %.not30 = icmp eq i32 %17, -1
  br i1 %.not30, label %20, label %18

18:                                               ; preds = %15
  %19 = tail call noundef i32 @_ZN2cv8ximgproc15EdgeDrawingImpl12LongestChainEP5Chaini(ptr noundef nonnull %0, i32 noundef %17)
  br label %20

20:                                               ; preds = %18, %15
  %.024 = phi i32 [ %19, %18 ], [ 0, %15 ]
  %.not31 = icmp slt i32 %.025, %.024
  br i1 %.not31, label %22, label %21

21:                                               ; preds = %20
  store i32 -1, ptr %16, align 4, !tbaa !15
  br label %23

22:                                               ; preds = %20
  store i32 -1, ptr %11, align 4, !tbaa !15
  br label %23

23:                                               ; preds = %22, %21
  %.0 = phi i32 [ %.025, %21 ], [ %.024, %22 ]
  %24 = load i32, ptr %7, align 4, !tbaa !223
  %25 = add nsw i32 %24, %.0
  br label %26

26:                                               ; preds = %2, %4, %23
  %.026 = phi i32 [ %25, %23 ], [ 0, %4 ], [ 0, %2 ]
  ret i32 %.026
}